target datalayout = "e-m:e-p270:32:32-p271:32:32-p272:64:64-i64:64-i128:128-f80:128-n8:16:32:64-S128"
target triple = "x86_64-unknown-linux-gnu"

%"class.re2::Regexp" = type { i8, i8, i16, i16, i16, %union.anon, ptr, %union.anon.0 }
%union.anon = type { ptr }
%union.anon.0 = type { %struct.anon.1 }
%struct.anon.1 = type { i32, ptr }

; Function Attrs: mustprogress nounwind uwtable
define linkonce_odr noundef zeroext i1 @_ZN3re26Regexp6simpleEv(ptr noundef nonnull align 8 dereferenceable(40) %this) #3 comdat align 2 {
entry:
  %this.addr = alloca ptr, align 8
  store ptr %this, ptr %this.addr, align 8
  %this1 = load ptr, ptr %this.addr, align 8
  %simple_ = getelementptr inbounds %"class.re2::Regexp", ptr %this1, i32 0, i32 1
  %0 = load i8, ptr %simple_, align 1
  %conv = zext i8 %0 to i32
  %cmp = icmp ne i32 %conv, 0
  ret i1 %cmp
}

; Function Attrs: mustprogress uwtable
define noundef ptr @_ZN3re214SimplifyWalker8PreVisitEPNS_6RegexpES2_Pb(ptr noundef nonnull align 8 dereferenceable(96) %this, ptr noundef %re, ptr noundef %parent_arg, ptr noundef %stop) unnamed_addr #0 align 2 {
entry:
  %retval = alloca ptr, align 8
  %this.addr = alloca ptr, align 8
  %re.addr = alloca ptr, align 8
  %parent_arg.addr = alloca ptr, align 8
  %stop.addr = alloca ptr, align 8
  store ptr %this, ptr %this.addr, align 8
  store ptr %re, ptr %re.addr, align 8
  store ptr %parent_arg, ptr %parent_arg.addr, align 8
  store ptr %stop, ptr %stop.addr, align 8
  %0 = load ptr, ptr %re.addr, align 8
  %call = call noundef zeroext i1 @_ZN3re26Regexp6simpleEv(ptr noundef nonnull align 8 dereferenceable(40) %0)
  br i1 %call, label %if.then, label %if.end

if.then:                                          ; preds = %entry
  %1 = load ptr, ptr %stop.addr, align 8
  store i8 1, ptr %1, align 1
  %2 = load ptr, ptr %re.addr, align 8
  %call2 = call noundef ptr @_ZN3re26Regexp6IncrefEv(ptr noundef nonnull align 8 dereferenceable(40) %2)
  store ptr %call2, ptr %retval, align 8
  br label %return

if.end:                                           ; preds = %entry
  store ptr null, ptr %retval, align 8
  br label %return

return:                                           ; preds = %if.end, %if.then
  %3 = load ptr, ptr %retval, align 8
  ret ptr %3
}