; Function Attrs: mustprogress uwtable
define noundef ptr @_ZN3re214SimplifyWalker8PreVisitEPNS_6RegexpES2_Pb(ptr nocapture nonnull readnone align 8 %this, ptr noundef %re, ptr nocapture readnone %parent_arg, ptr nocapture noundef writeonly %stop) unnamed_addr #0 align 2 {
entry:
  %simple_.i = getelementptr inbounds i8, ptr %re, i64 1
  %0 = load i8, ptr %simple_.i, align 1
  %cmp.i.not = icmp eq i8 %0, 0
  br i1 %cmp.i.not, label %return, label %if.then

if.then:                                          ; preds = %entry
  store i8 1, ptr %stop, align 1
  %call2 = tail call noundef ptr @_ZN3re26Regexp6IncrefEv(ptr noundef nonnull align 8 dereferenceable(40) %re)
  br label %return

return:                                           ; preds = %entry, %if.then
  %retval.0 = phi ptr [ %call2, %if.then ], [ null, %entry ]
  ret ptr %retval.0
}